; Function Attrs: mustprogress uwtable
define void @_ZN8QuantLib14OneAssetOptionC2ERKN5boost10shared_ptrINS_6PayoffEEERKNS2_INS_8ExerciseEEE(ptr noundef nonnull align 8 dereferenceable(224) %this, ptr noundef %vtt, ptr nocapture noundef nonnull readonly align 8 dereferenceable(16) %payoff, ptr nocapture noundef nonnull readonly align 8 dereferenceable(16) %exercise) unnamed_addr #9 align 2 personality ptr @__gxx_personality_v0 {
entry:
  %agg.tmp = alloca %"class.boost::shared_ptr.16", align 8
  %agg.tmp3 = alloca %"class.boost::shared_ptr.17", align 8
  %0 = load ptr, ptr %payoff, align 8, !tbaa !40
  store ptr %0, ptr %agg.tmp, align 8, !tbaa !40
  %pn.i = getelementptr inbounds nuw i8, ptr %agg.tmp, i64 8
  %pn3.i = getelementptr inbounds nuw i8, ptr %payoff, i64 8
  %1 = load ptr, ptr %pn3.i, align 8, !tbaa !43
  store ptr %1, ptr %pn.i, align 8, !tbaa !43
  %cmp.not.i.i = icmp eq ptr %1, null
  br i1 %cmp.not.i.i, label %_ZN5boost10shared_ptrIN8QuantLib6PayoffEEC2ERKS3_.exit, label %if.then.i.i

if.then.i.i:                                      ; preds = %entry
  %use_count_.i.i.i = getelementptr inbounds nuw i8, ptr %1, i64 8
  %2 = atomicrmw add ptr %use_count_.i.i.i, i32 1 monotonic, align 4
  br label %_ZN5boost10shared_ptrIN8QuantLib6PayoffEEC2ERKS3_.exit

_ZN5boost10shared_ptrIN8QuantLib6PayoffEEC2ERKS3_.exit: ; preds = %entry, %if.then.i.i
  %3 = load ptr, ptr %exercise, align 8, !tbaa !44
  store ptr %3, ptr %agg.tmp3, align 8, !tbaa !44
  %pn.i1 = getelementptr inbounds nuw i8, ptr %agg.tmp3, i64 8
  %pn3.i2 = getelementptr inbounds nuw i8, ptr %exercise, i64 8
  %4 = load ptr, ptr %pn3.i2, align 8, !tbaa !43
  store ptr %4, ptr %pn.i1, align 8, !tbaa !43
  %cmp.not.i.i3 = icmp eq ptr %4, null
  br i1 %cmp.not.i.i3, label %_ZN5boost10shared_ptrIN8QuantLib8ExerciseEEC2ERKS3_.exit, label %if.then.i.i4

if.then.i.i4:                                     ; preds = %_ZN5boost10shared_ptrIN8QuantLib6PayoffEEC2ERKS3_.exit
  %use_count_.i.i.i5 = getelementptr inbounds nuw i8, ptr %4, i64 8
  %5 = atomicrmw add ptr %use_count_.i.i.i5, i32 1 monotonic, align 4
  br label %_ZN5boost10shared_ptrIN8QuantLib8ExerciseEEC2ERKS3_.exit

_ZN5boost10shared_ptrIN8QuantLib8ExerciseEEC2ERKS3_.exit: ; preds = %_ZN5boost10shared_ptrIN8QuantLib6PayoffEEC2ERKS3_.exit, %if.then.i.i4
  %6 = getelementptr inbounds i8, ptr %vtt, i64 16
  invoke void @_ZN8QuantLib10InstrumentC2Ev(ptr noundef nonnull align 8 dereferenceable(104) %this, ptr noundef nonnull %6)
          to label %_ZN5boost10shared_ptrIN8QuantLib6PayoffEED2Ev.exit unwind label %lpad

_ZN5boost10shared_ptrIN8QuantLib6PayoffEED2Ev.exit: ; preds = %_ZN5boost10shared_ptrIN8QuantLib8ExerciseEEC2ERKS3_.exit
  %7 = getelementptr inbounds i8, ptr %vtt, i64 8
  %8 = load ptr, ptr %7, align 8
  store ptr %8, ptr %this, align 8, !tbaa !33
  %9 = getelementptr inbounds i8, ptr %vtt, i64 64
  %10 = load ptr, ptr %9, align 8
  %vbase.offset.ptr.i = getelementptr i8, ptr %8, i64 -24
  %vbase.offset.i = load i64, ptr %vbase.offset.ptr.i, align 8
  %add.ptr.i = getelementptr inbounds i8, ptr %this, i64 %vbase.offset.i
  store ptr %10, ptr %add.ptr.i, align 8, !tbaa !33
  %11 = getelementptr inbounds i8, ptr %vtt, i64 72
  %12 = load ptr, ptr %11, align 8
  %vtable3.i = load ptr, ptr %this, align 8, !tbaa !33
  %vbase.offset.ptr4.i = getelementptr i8, ptr %vtable3.i, i64 -32
  %vbase.offset5.i = load i64, ptr %vbase.offset.ptr4.i, align 8
  %add.ptr6.i = getelementptr inbounds i8, ptr %this, i64 %vbase.offset5.i
  store ptr %12, ptr %add.ptr6.i, align 8, !tbaa !33
  %payoff_.i = getelementptr inbounds nuw i8, ptr %this, i64 104
  store ptr %0, ptr %payoff_.i, align 8, !tbaa !40
  %pn.i.i = getelementptr inbounds nuw i8, ptr %this, i64 112
  store ptr %1, ptr %pn.i.i, align 8, !tbaa !43
  %exercise_.i = getelementptr inbounds nuw i8, ptr %this, i64 120
  store ptr %3, ptr %exercise_.i, align 8, !tbaa !44
  %pn.i1.i = getelementptr inbounds nuw i8, ptr %this, i64 128
  store ptr %4, ptr %pn.i1.i, align 8, !tbaa !43
  %.pre = load ptr, ptr %vtt, align 8
  store ptr %.pre, ptr %this, align 8, !tbaa !33
  %13 = getelementptr inbounds i8, ptr %vtt, i64 80
  %14 = load ptr, ptr %13, align 8
  %vbase.offset.ptr = getelementptr i8, ptr %.pre, i64 -24
  %vbase.offset = load i64, ptr %vbase.offset.ptr, align 8
  %add.ptr = getelementptr inbounds i8, ptr %this, i64 %vbase.offset
  store ptr %14, ptr %add.ptr, align 8, !tbaa !33
  %15 = getelementptr inbounds i8, ptr %vtt, i64 88
  %16 = load ptr, ptr %15, align 8
  %vtable4 = load ptr, ptr %this, align 8, !tbaa !33
  %vbase.offset.ptr5 = getelementptr i8, ptr %vtable4, i64 -32
  %vbase.offset6 = load i64, ptr %vbase.offset.ptr5, align 8
  %add.ptr7 = getelementptr inbounds i8, ptr %this, i64 %vbase.offset6
  store ptr %16, ptr %add.ptr7, align 8, !tbaa !33
  ret void

lpad:                                             ; preds = %_ZN5boost10shared_ptrIN8QuantLib8ExerciseEEC2ERKS3_.exit
  %17 = landingpad { ptr, i32 }
          cleanup
  call void @_ZN5boost10shared_ptrIN8QuantLib8ExerciseEED2Ev(ptr noundef nonnull align 8 dereferenceable(16) %agg.tmp3) #24
  call void @_ZN5boost10shared_ptrIN8QuantLib6PayoffEED2Ev(ptr noundef nonnull align 8 dereferenceable(16) %agg.tmp) #24
  resume { ptr, i32 } %17
}